target datalayout = "e-m:e-p270:32:32-p271:32:32-p272:64:64-i64:64-i128:128-f80:128-n8:16:32:64-S128"
target triple = "x86_64-pc-linux-gnu"

; Function Attrs: mustprogress nounwind uwtable
define internal noundef double @_ZL8safe_expd(double noundef %0) #0 {
  %2 = alloca double, align 8
  %3 = alloca double, align 8
  %4 = alloca double, align 8
  %5 = alloca double, align 8
  %6 = alloca i32, align 4
  store double %0, ptr %3, align 8, !tbaa !16
  call void @llvm.lifetime.start.p0(i64 8, ptr %4) #14
  store double 2.000000e+02, ptr %4, align 8, !tbaa !16
  call void @llvm.lifetime.start.p0(i64 8, ptr %5) #14
  %7 = load double, ptr %4, align 8, !tbaa !16
  %8 = fneg double %7
  store double %8, ptr %5, align 8, !tbaa !16
  %9 = load double, ptr %3, align 8, !tbaa !16
  %10 = load double, ptr %5, align 8, !tbaa !16
  %11 = fcmp ole double %9, %10
  br i1 %11, label %12, label %15

12:                                               ; preds = %1
  %13 = load double, ptr %5, align 8, !tbaa !16
  %14 = call double @exp(double noundef %13) #14, !tbaa !4
  store double %14, ptr %2, align 8
  store i32 1, ptr %6, align 4
  br label %25

15:                                               ; preds = %1
  %16 = load double, ptr %3, align 8, !tbaa !16
  %17 = load double, ptr %4, align 8, !tbaa !16
  %18 = fcmp oge double %16, %17
  br i1 %18, label %19, label %22

19:                                               ; preds = %15
  %20 = load double, ptr %4, align 8, !tbaa !16
  %21 = call double @exp(double noundef %20) #14, !tbaa !4
  store double %21, ptr %2, align 8
  store i32 1, ptr %6, align 4
  br label %25

22:                                               ; preds = %15
  %23 = load double, ptr %3, align 8, !tbaa !16
  %24 = call double @exp(double noundef %23) #14, !tbaa !4
  store double %24, ptr %2, align 8
  store i32 1, ptr %6, align 4
  br label %25

25:                                               ; preds = %22, %19, %12
  call void @llvm.lifetime.end.p0(i64 8, ptr %5) #14
  call void @llvm.lifetime.end.p0(i64 8, ptr %4) #14
  %26 = load double, ptr %2, align 8
  ret double %26
}

; Function Attrs: mustprogress nounwind uwtable
define internal noundef double @_ZL14lmc_exp_7_parmdPKd(double noundef %0, ptr noundef %1) #0 {
  %3 = alloca double, align 8
  %4 = alloca ptr, align 8
  %5 = alloca double, align 8
  %6 = alloca double, align 8
  %7 = alloca double, align 8
  %8 = alloca double, align 8
  %9 = alloca double, align 8
  %10 = alloca double, align 8
  store double %0, ptr %3, align 8, !tbaa !16
  store ptr %1, ptr %4, align 8, !tbaa !18
  call void @llvm.lifetime.start.p0(i64 8, ptr %5) #14
  call void @llvm.lifetime.start.p0(i64 8, ptr %6) #14
  call void @llvm.lifetime.start.p0(i64 8, ptr %7) #14
  call void @llvm.lifetime.start.p0(i64 8, ptr %8) #14
  call void @llvm.lifetime.start.p0(i64 8, ptr %9) #14
  call void @llvm.lifetime.start.p0(i64 8, ptr %10) #14
  %11 = load ptr, ptr %4, align 8, !tbaa !18
  %12 = getelementptr inbounds double, ptr %11, i64 1
  %13 = load double, ptr %12, align 8, !tbaa !16
  %14 = call double @llvm.fabs.f64(double %13)
  store double %14, ptr %8, align 8, !tbaa !16
  %15 = load double, ptr %8, align 8, !tbaa !16
  %16 = load ptr, ptr %4, align 8, !tbaa !18
  %17 = getelementptr inbounds double, ptr %16, i64 3
  %18 = load double, ptr %17, align 8, !tbaa !16
  %19 = call double @llvm.fabs.f64(double %18)
  %20 = fadd double %15, %19
  store double %20, ptr %9, align 8, !tbaa !16
  %21 = load double, ptr %9, align 8, !tbaa !16
  %22 = load ptr, ptr %4, align 8, !tbaa !18
  %23 = getelementptr inbounds double, ptr %22, i64 5
  %24 = load double, ptr %23, align 8, !tbaa !16
  %25 = call double @llvm.fabs.f64(double %24)
  %26 = fadd double %21, %25
  store double %26, ptr %10, align 8, !tbaa !16
  %27 = load double, ptr %3, align 8, !tbaa !16
  %28 = fneg double %27
  %29 = load double, ptr %8, align 8, !tbaa !16
  %30 = fdiv double %28, %29
  %31 = call noundef double @_ZL8safe_expd(double noundef %30)
  store double %31, ptr %5, align 8, !tbaa !16
  %32 = load double, ptr %3, align 8, !tbaa !16
  %33 = fneg double %32
  %34 = load double, ptr %9, align 8, !tbaa !16
  %35 = fdiv double %33, %34
  %36 = call noundef double @_ZL8safe_expd(double noundef %35)
  store double %36, ptr %6, align 8, !tbaa !16
  %37 = load double, ptr %3, align 8, !tbaa !16
  %38 = fneg double %37
  %39 = load double, ptr %10, align 8, !tbaa !16
  %40 = fdiv double %38, %39
  %41 = call noundef double @_ZL8safe_expd(double noundef %40)
  store double %41, ptr %7, align 8, !tbaa !16
  %42 = load ptr, ptr %4, align 8, !tbaa !18
  %43 = getelementptr inbounds double, ptr %42, i64 0
  %44 = load double, ptr %43, align 8, !tbaa !16
  %45 = load double, ptr %5, align 8, !tbaa !16
  %46 = load ptr, ptr %4, align 8, !tbaa !18
  %47 = getelementptr inbounds double, ptr %46, i64 2
  %48 = load double, ptr %47, align 8, !tbaa !16
  %49 = load double, ptr %6, align 8, !tbaa !16
  %50 = fmul double %48, %49
  %51 = call double @llvm.fmuladd.f64(double %44, double %45, double %50)
  %52 = load ptr, ptr %4, align 8, !tbaa !18
  %53 = getelementptr inbounds double, ptr %52, i64 4
  %54 = load double, ptr %53, align 8, !tbaa !16
  %55 = load double, ptr %7, align 8, !tbaa !16
  %56 = call double @llvm.fmuladd.f64(double %54, double %55, double %51)
  %57 = load ptr, ptr %4, align 8, !tbaa !18
  %58 = getelementptr inbounds double, ptr %57, i64 6
  %59 = load double, ptr %58, align 8, !tbaa !16
  %60 = fadd double %56, %59
  call void @llvm.lifetime.end.p0(i64 8, ptr %10) #14
  call void @llvm.lifetime.end.p0(i64 8, ptr %9) #14
  call void @llvm.lifetime.end.p0(i64 8, ptr %8) #14
  call void @llvm.lifetime.end.p0(i64 8, ptr %7) #14
  call void @llvm.lifetime.end.p0(i64 8, ptr %6) #14
  call void @llvm.lifetime.end.p0(i64 8, ptr %5) #14
  ret double %60
}