; Function Attrs: mustprogress nofree nounwind willreturn memory(write, argmem: readwrite) uwtable
define internal noundef double @_ZL14lmc_exp_7_parmdPKd(double noundef %0, ptr noundef readonly captures(none) %1) #4 {
  %3 = getelementptr inbounds nuw i8, ptr %1, i64 8
  %4 = load double, ptr %3, align 8, !tbaa !13
  %5 = tail call double @llvm.fabs.f64(double %4)
  %6 = getelementptr inbounds nuw i8, ptr %1, i64 24
  %7 = load double, ptr %6, align 8, !tbaa !13
  %8 = tail call double @llvm.fabs.f64(double %7)
  %9 = fadd double %5, %8
  %10 = getelementptr inbounds nuw i8, ptr %1, i64 40
  %11 = load double, ptr %10, align 8, !tbaa !13
  %12 = tail call double @llvm.fabs.f64(double %11)
  %13 = fadd double %9, %12
  %14 = fneg double %0
  %15 = fdiv double %14, %5
  %16 = fcmp ugt double %15, -2.000000e+02
  br i1 %16, label %17, label %_ZL8safe_expd.exit

17:                                               ; preds = %2
  %18 = fcmp ult double %15, 2.000000e+02
  br i1 %18, label %19, label %_ZL8safe_expd.exit

19:                                               ; preds = %17
  %20 = tail call double @exp(double noundef %15) #18, !tbaa !4
  br label %_ZL8safe_expd.exit

_ZL8safe_expd.exit:                               ; preds = %2, %17, %19
  %.0.i = phi double [ %20, %19 ], [ 0x2DE6061812054CFA, %2 ], [ 0x51F73F60EA79F5B9, %17 ]
  %21 = fdiv double %14, %9
  %22 = fcmp ugt double %21, -2.000000e+02
  br i1 %22, label %23, label %_ZL8safe_expd.exit19

23:                                               ; preds = %_ZL8safe_expd.exit
  %24 = fcmp ult double %21, 2.000000e+02
  br i1 %24, label %25, label %_ZL8safe_expd.exit19

25:                                               ; preds = %23
  %26 = tail call double @exp(double noundef %21) #18, !tbaa !4
  br label %_ZL8safe_expd.exit19

_ZL8safe_expd.exit19:                             ; preds = %_ZL8safe_expd.exit, %23, %25
  %.0.i18 = phi double [ %26, %25 ], [ 0x2DE6061812054CFA, %_ZL8safe_expd.exit ], [ 0x51F73F60EA79F5B9, %23 ]
  %27 = fdiv double %14, %13
  %28 = fcmp ugt double %27, -2.000000e+02
  br i1 %28, label %29, label %_ZL8safe_expd.exit21

29:                                               ; preds = %_ZL8safe_expd.exit19
  %30 = fcmp ult double %27, 2.000000e+02
  br i1 %30, label %31, label %_ZL8safe_expd.exit21

31:                                               ; preds = %29
  %32 = tail call double @exp(double noundef %27) #18, !tbaa !4
  br label %_ZL8safe_expd.exit21

_ZL8safe_expd.exit21:                             ; preds = %_ZL8safe_expd.exit19, %29, %31
  %.0.i20 = phi double [ %32, %31 ], [ 0x2DE6061812054CFA, %_ZL8safe_expd.exit19 ], [ 0x51F73F60EA79F5B9, %29 ]
  %33 = load double, ptr %1, align 8, !tbaa !13
  %34 = getelementptr inbounds nuw i8, ptr %1, i64 16
  %35 = load double, ptr %34, align 8, !tbaa !13
  %36 = fmul double %.0.i18, %35
  %37 = tail call double @llvm.fmuladd.f64(double %33, double %.0.i, double %36)
  %38 = getelementptr inbounds nuw i8, ptr %1, i64 32
  %39 = load double, ptr %38, align 8, !tbaa !13
  %40 = tail call double @llvm.fmuladd.f64(double %39, double %.0.i20, double %37)
  %41 = getelementptr inbounds nuw i8, ptr %1, i64 48
  %42 = load double, ptr %41, align 8, !tbaa !13
  %43 = fadd double %42, %40
  ret double %43
}